; Function Attrs: mustprogress uwtable
define void @_ZN7rocksdb16PointLockManager7TryLockEPNS_22PessimisticTransactionEjRKNS_8EndpointES5_PNS_3EnvEb(ptr dead_on_unwind noalias nonnull writable sret(%"class.rocksdb::Status") align 8 %0, ptr nonnull readnone align 8 captures(none) %1, ptr readnone captures(none) %2, i32 %3, ptr nonnull readnone align 8 captures(none) %4, ptr nonnull readnone align 8 captures(none) %5, ptr readnone captures(none) %6, i1 zeroext %7) unnamed_addr #4 align 2 {
  %9 = alloca %"class.rocksdb::Slice", align 8
  %10 = alloca %"class.rocksdb::Slice", align 8
  call void @llvm.lifetime.start.p0(i64 16, ptr nonnull %9) #30
  store ptr @.str.41, ptr %9, align 8, !tbaa !184
  %11 = getelementptr inbounds nuw i8, ptr %9, i64 8
  store i64 47, ptr %11, align 8, !tbaa !186
  call void @llvm.lifetime.start.p0(i64 16, ptr nonnull %10) #30
  store ptr @.str, ptr %10, align 8, !tbaa !184
  %12 = getelementptr inbounds nuw i8, ptr %10, i64 8
  store i64 0, ptr %12, align 8, !tbaa !186
  call void @_ZN7rocksdb6StatusC2ENS0_4CodeENS0_7SubCodeERKNS_5SliceES5_NS0_8SeverityE(ptr noundef nonnull align 8 dereferenceable(16) %0, i8 noundef zeroext 3, i8 noundef zeroext 0, ptr noundef nonnull align 8 dereferenceable(16) %9, ptr noundef nonnull align 8 dereferenceable(16) %10, i8 noundef zeroext 0)
  call void @llvm.lifetime.end.p0(i64 16, ptr nonnull %10) #30
  call void @llvm.lifetime.end.p0(i64 16, ptr nonnull %9) #30
  ret void
}